; Function Attrs: mustprogress nounwind uwtable
define hidden void @_ZN22G1RedirtyCardsQueueSet24enqueue_completed_bufferEP10BufferNode(ptr noundef nonnull align 8 dereferenceable(408) %0, ptr noundef %1) unnamed_addr #0 align 2 {
  %3 = getelementptr inbounds i8, ptr %0, i64 272
  %4 = getelementptr inbounds i8, ptr %1, i64 4
  %5 = load i32, ptr %4, align 4
  %6 = zext i32 %5 to i64
  %7 = load i32, ptr %1, align 8
  %8 = zext i32 %7 to i64
  %9 = sub nsw i64 %6, %8
  %10 = tail call noundef i64 asm sideeffect "lock xaddq $0,($2)", "=r,0,r,~{cc},~{memory},~{dirflag},~{fpsr},~{flags}"(i64 %9, ptr nonnull %3) #6, !srcloc !6
  %11 = getelementptr inbounds i8, ptr %0, i64 144
  %12 = load volatile ptr, ptr %11, align 8
  %13 = getelementptr inbounds i8, ptr %1, i64 8
  br label %14

14:                                               ; preds = %14, %2
  %.0.i.i = phi ptr [ %12, %2 ], [ %15, %14 ]
  store volatile ptr %.0.i.i, ptr %13, align 8
  %15 = tail call noundef ptr asm sideeffect "lock cmpxchgq $1,($3)", "={ax},r,{ax},r,~{cc},~{memory},~{dirflag},~{fpsr},~{flags}"(ptr nonnull %1, ptr %.0.i.i, ptr nonnull %11) #6, !srcloc !7
  %.not.i.i = icmp eq ptr %.0.i.i, %15
  br i1 %.not.i.i, label %_ZN13LockFreeStackI10BufferNodeXadL_ZNS0_8next_ptrERS0_EEE4pushES1_.exit, label %14, !llvm.loop !8

_ZN13LockFreeStackI10BufferNodeXadL_ZNS0_8next_ptrERS0_EEE4pushES1_.exit: ; preds = %14
  %16 = load volatile ptr, ptr %13, align 8
  %17 = icmp eq ptr %16, null
  br i1 %17, label %18, label %_ZN22G1RedirtyCardsQueueSet11update_tailEP10BufferNode.exit

18:                                               ; preds = %_ZN13LockFreeStackI10BufferNodeXadL_ZNS0_8next_ptrERS0_EEE4pushES1_.exit
  %19 = getelementptr inbounds i8, ptr %0, i64 400
  store ptr %1, ptr %19, align 8
  br label %_ZN22G1RedirtyCardsQueueSet11update_tailEP10BufferNode.exit

_ZN22G1RedirtyCardsQueueSet11update_tailEP10BufferNode.exit: ; preds = %_ZN13LockFreeStackI10BufferNodeXadL_ZNS0_8next_ptrERS0_EEE4pushES1_.exit, %18
  ret void
}